#include <math.h>
#include <stdio.h>
#include <stdlib.h>
#include <string.h>

int main()
{
	int n,i,p,j,c;
	char s[1000],a[1000];
	scanf("%d",&n);
	for(i=0;i<n;i++){
		for(c=0;c<1000;c++){
			s[c]=0;
			a[c]=0;
		}
		scanf("%s",s);
		p=strlen(s);
		for(j=0;j<p;j++){
			if(s[j]=='A'){
				a[j]='T';
			}else if(s[j]=='T'){
				a[j]='A';
			}else if(s[j]=='G'){
				a[j]='C';
			}else if(s[j]=='C'){
				a[j]='G';
			}
		}
		printf("%s\n",a);
	}
	return 0;
}
