; ModuleID = '33/3138.c'
source_filename = "33/3138.c"
target datalayout = "e-m:e-p270:32:32-p271:32:32-p272:64:64-i64:64-f80:128-n8:16:32:64-S128"
target triple = "x86_64-pc-linux-gnu"

@.str = private unnamed_addr constant [3 x i8] c"%d\00", align 1
@.str.1 = private unnamed_addr constant [3 x i8] c"%s\00", align 1
@.str.2 = private unnamed_addr constant [4 x i8] c"%s\0A\00", align 1

; Function Attrs: noinline nounwind uwtable
define dso_local i32 @main() #0 {
  %1 = alloca i32, align 4
  %2 = alloca i32, align 4
  %3 = alloca i32, align 4
  %4 = alloca i32, align 4
  %5 = alloca i32, align 4
  %6 = alloca i32, align 4
  %7 = alloca [1000 x i8], align 16
  %8 = alloca [1000 x i8], align 16
  store i32 0, i32* %1, align 4
  %9 = call i32 (i8*, ...) @__isoc99_scanf(i8* getelementptr inbounds ([3 x i8], [3 x i8]* @.str, i64 0, i64 0), i32* %2)
  store i32 0, i32* %3, align 4
  br label %10

10:                                               ; preds = %92, %0
  %11 = load i32, i32* %3, align 4
  %12 = load i32, i32* %2, align 4
  %13 = icmp slt i32 %11, %12
  br i1 %13, label %14, label %95

14:                                               ; preds = %10
  store i32 0, i32* %6, align 4
  br label %15

15:                                               ; preds = %25, %14
  %16 = load i32, i32* %6, align 4
  %17 = icmp slt i32 %16, 1000
  br i1 %17, label %18, label %28

18:                                               ; preds = %15
  %19 = load i32, i32* %6, align 4
  %20 = sext i32 %19 to i64
  %21 = getelementptr inbounds [1000 x i8], [1000 x i8]* %7, i64 0, i64 %20
  store i8 0, i8* %21, align 1
  %22 = load i32, i32* %6, align 4
  %23 = sext i32 %22 to i64
  %24 = getelementptr inbounds [1000 x i8], [1000 x i8]* %8, i64 0, i64 %23
  store i8 0, i8* %24, align 1
  br label %25

25:                                               ; preds = %18
  %26 = load i32, i32* %6, align 4
  %27 = add nsw i32 %26, 1
  store i32 %27, i32* %6, align 4
  br label %15

28:                                               ; preds = %15
  %29 = getelementptr inbounds [1000 x i8], [1000 x i8]* %7, i64 0, i64 0
  %30 = call i32 (i8*, ...) @__isoc99_scanf(i8* getelementptr inbounds ([3 x i8], [3 x i8]* @.str.1, i64 0, i64 0), i8* %29)
  %31 = getelementptr inbounds [1000 x i8], [1000 x i8]* %7, i64 0, i64 0
  %32 = call i64 @strlen(i8* %31) #3
  %33 = trunc i64 %32 to i32
  store i32 %33, i32* %4, align 4
  store i32 0, i32* %5, align 4
  br label %34

34:                                               ; preds = %86, %28
  %35 = load i32, i32* %5, align 4
  %36 = load i32, i32* %4, align 4
  %37 = icmp slt i32 %35, %36
  br i1 %37, label %38, label %89

38:                                               ; preds = %34
  %39 = load i32, i32* %5, align 4
  %40 = sext i32 %39 to i64
  %41 = getelementptr inbounds [1000 x i8], [1000 x i8]* %7, i64 0, i64 %40
  %42 = load i8, i8* %41, align 1
  %43 = sext i8 %42 to i32
  %44 = icmp eq i32 %43, 65
  br i1 %44, label %45, label %49

45:                                               ; preds = %38
  %46 = load i32, i32* %5, align 4
  %47 = sext i32 %46 to i64
  %48 = getelementptr inbounds [1000 x i8], [1000 x i8]* %8, i64 0, i64 %47
  store i8 84, i8* %48, align 1
  br label %85

49:                                               ; preds = %38
  %50 = load i32, i32* %5, align 4
  %51 = sext i32 %50 to i64
  %52 = getelementptr inbounds [1000 x i8], [1000 x i8]* %7, i64 0, i64 %51
  %53 = load i8, i8* %52, align 1
  %54 = sext i8 %53 to i32
  %55 = icmp eq i32 %54, 84
  br i1 %55, label %56, label %60

56:                                               ; preds = %49
  %57 = load i32, i32* %5, align 4
  %58 = sext i32 %57 to i64
  %59 = getelementptr inbounds [1000 x i8], [1000 x i8]* %8, i64 0, i64 %58
  store i8 65, i8* %59, align 1
  br label %84

60:                                               ; preds = %49
  %61 = load i32, i32* %5, align 4
  %62 = sext i32 %61 to i64
  %63 = getelementptr inbounds [1000 x i8], [1000 x i8]* %7, i64 0, i64 %62
  %64 = load i8, i8* %63, align 1
  %65 = sext i8 %64 to i32
  %66 = icmp eq i32 %65, 71
  br i1 %66, label %67, label %71

67:                                               ; preds = %60
  %68 = load i32, i32* %5, align 4
  %69 = sext i32 %68 to i64
  %70 = getelementptr inbounds [1000 x i8], [1000 x i8]* %8, i64 0, i64 %69
  store i8 67, i8* %70, align 1
  br label %83

71:                                               ; preds = %60
  %72 = load i32, i32* %5, align 4
  %73 = sext i32 %72 to i64
  %74 = getelementptr inbounds [1000 x i8], [1000 x i8]* %7, i64 0, i64 %73
  %75 = load i8, i8* %74, align 1
  %76 = sext i8 %75 to i32
  %77 = icmp eq i32 %76, 67
  br i1 %77, label %78, label %82

78:                                               ; preds = %71
  %79 = load i32, i32* %5, align 4
  %80 = sext i32 %79 to i64
  %81 = getelementptr inbounds [1000 x i8], [1000 x i8]* %8, i64 0, i64 %80
  store i8 71, i8* %81, align 1
  br label %82

82:                                               ; preds = %78, %71
  br label %83

83:                                               ; preds = %82, %67
  br label %84

84:                                               ; preds = %83, %56
  br label %85

85:                                               ; preds = %84, %45
  br label %86

86:                                               ; preds = %85
  %87 = load i32, i32* %5, align 4
  %88 = add nsw i32 %87, 1
  store i32 %88, i32* %5, align 4
  br label %34

89:                                               ; preds = %34
  %90 = getelementptr inbounds [1000 x i8], [1000 x i8]* %8, i64 0, i64 0
  %91 = call i32 (i8*, ...) @printf(i8* getelementptr inbounds ([4 x i8], [4 x i8]* @.str.2, i64 0, i64 0), i8* %90)
  br label %92

92:                                               ; preds = %89
  %93 = load i32, i32* %3, align 4
  %94 = add nsw i32 %93, 1
  store i32 %94, i32* %3, align 4
  br label %10

95:                                               ; preds = %10
  ret i32 0
}

declare dso_local i32 @__isoc99_scanf(i8*, ...) #1

; Function Attrs: nounwind readonly
declare dso_local i64 @strlen(i8*) #2

declare dso_local i32 @printf(i8*, ...) #1


!llvm.module.flags = !{!0}
!llvm.ident = !{!1}

!0 = !{i32 1, !"wchar_size", i32 4}
!1 = !{!"clang version 10.0.0-4ubuntu1 "}
